target datalayout = "e-m:e-p270:32:32-p271:32:32-p272:64:64-i64:64-i128:128-f80:128-n8:16:32:64-S128"
target triple = "x86_64-pc-linux-gnu"

%struct.Gia_Man_t_ = type { ptr, ptr, i32, i32, i32, i32, ptr, ptr, i32, i32, i32, ptr, ptr, %struct.Vec_Int_t_, %struct.Vec_Int_t_, i32, i32, i32, %struct.Vec_Int_t_, ptr, ptr, ptr, i32, i32, i32, i32, ptr, ptr, ptr, ptr, ptr, i32, i32, ptr, i32, ptr, ptr, ptr, ptr, ptr, ptr, ptr, ptr, ptr, ptr, ptr, ptr, ptr, ptr, ptr, ptr, ptr, ptr, %struct.Vec_Int_t_, %struct.Vec_Int_t_, ptr, ptr, ptr, ptr, ptr, ptr, ptr, ptr, ptr, ptr, ptr, ptr, ptr, ptr, ptr, ptr, ptr, ptr, ptr, ptr, ptr, i32, float, float, ptr, ptr, i32, ptr, ptr, ptr, ptr, ptr, ptr, ptr, ptr, ptr, ptr, ptr, ptr, ptr, ptr, ptr, i64, i64, ptr, ptr, i32, i32, i32, i32, i32, i32, i32, i32, i32, i32, i32, i32, ptr, ptr, ptr, ptr, ptr, ptr, ptr, ptr, i32, i32, i32, ptr, i32, i32, ptr, ptr, ptr, ptr, ptr, ptr, i32, i32, ptr, %struct.Vec_Int_t_, %struct.Vec_Int_t_, %struct.Vec_Int_t_, ptr, ptr, ptr, i32, i32, i32, i32, ptr, ptr, ptr, ptr, ptr }
%struct.Vec_Int_t_ = type { i32, i32, ptr }
%struct.Vec_Wrd_t_ = type { i32, i32, ptr }
%struct.Gia_Obj_t_ = type <{ i64, i32 }>

@__const.Gia_ManSimPatSimAnd.pComps = private unnamed_addr constant [2 x i64] [i64 0, i64 -1], align 16

; Function Attrs: inlinehint nounwind uwtable
define internal i32 @Gia_ObjIsXor(ptr noundef %0) #2 {
  %2 = alloca ptr, align 8
  store ptr %0, ptr %2, align 8, !tbaa !35
  %3 = load ptr, ptr %2, align 8, !tbaa !35
  %4 = call i32 @Gia_ObjIsAnd(ptr noundef %3)
  %5 = icmp ne i32 %4, 0
  br i1 %5, label %6, label %17

6:                                                ; preds = %1
  %7 = load ptr, ptr %2, align 8, !tbaa !35
  %8 = load i64, ptr %7, align 4
  %9 = and i64 %8, 536870911
  %10 = trunc i64 %9 to i32
  %11 = load ptr, ptr %2, align 8, !tbaa !35
  %12 = load i64, ptr %11, align 4
  %13 = lshr i64 %12, 32
  %14 = and i64 %13, 536870911
  %15 = trunc i64 %14 to i32
  %16 = icmp slt i32 %10, %15
  br label %17

17:                                               ; preds = %6, %1
  %18 = phi i1 [ false, %1 ], [ %16, %6 ]
  %19 = zext i1 %18 to i32
  ret i32 %19
}

; Function Attrs: inlinehint nounwind uwtable
define internal i32 @Gia_ObjFaninId1(ptr noundef %0, i32 noundef %1) #2 {
  %3 = alloca ptr, align 8
  %4 = alloca i32, align 4
  store ptr %0, ptr %3, align 8, !tbaa !35
  store i32 %1, ptr %4, align 4, !tbaa !8
  %5 = load i32, ptr %4, align 4, !tbaa !8
  %6 = load ptr, ptr %3, align 8, !tbaa !35
  %7 = load i64, ptr %6, align 4
  %8 = lshr i64 %7, 32
  %9 = and i64 %8, 536870911
  %10 = trunc i64 %9 to i32
  %11 = sub nsw i32 %5, %10
  ret i32 %11
}

; Function Attrs: inlinehint nounwind uwtable
define internal i32 @Gia_ObjFaninId0(ptr noundef %0, i32 noundef %1) #2 {
  %3 = alloca ptr, align 8
  %4 = alloca i32, align 4
  store ptr %0, ptr %3, align 8, !tbaa !35
  store i32 %1, ptr %4, align 4, !tbaa !8
  %5 = load i32, ptr %4, align 4, !tbaa !8
  %6 = load ptr, ptr %3, align 8, !tbaa !35
  %7 = load i64, ptr %6, align 4
  %8 = and i64 %7, 536870911
  %9 = trunc i64 %8 to i32
  %10 = sub nsw i32 %5, %9
  ret i32 %10
}

; Function Attrs: inlinehint nounwind uwtable
define internal i32 @Gia_ObjFaninC1(ptr noundef %0) #2 {
  %2 = alloca ptr, align 8
  store ptr %0, ptr %2, align 8, !tbaa !35
  %3 = load ptr, ptr %2, align 8, !tbaa !35
  %4 = load i64, ptr %3, align 4
  %5 = lshr i64 %4, 61
  %6 = and i64 %5, 1
  %7 = trunc i64 %6 to i32
  ret i32 %7
}

; Function Attrs: inlinehint nounwind uwtable
define internal i32 @Gia_ObjFaninC0(ptr noundef %0) #2 {
  %2 = alloca ptr, align 8
  store ptr %0, ptr %2, align 8, !tbaa !35
  %3 = load ptr, ptr %2, align 8, !tbaa !35
  %4 = load i64, ptr %3, align 4
  %5 = lshr i64 %4, 29
  %6 = and i64 %5, 1
  %7 = trunc i64 %6 to i32
  ret i32 %7
}

; Function Attrs: inlinehint nounwind uwtable
define internal ptr @Vec_WrdArray(ptr noundef %0) #2 {
  %2 = alloca ptr, align 8
  store ptr %0, ptr %2, align 8, !tbaa !10
  %3 = load ptr, ptr %2, align 8, !tbaa !10
  %4 = getelementptr inbounds nuw %struct.Vec_Wrd_t_, ptr %3, i32 0, i32 2
  %5 = load ptr, ptr %4, align 8, !tbaa !37
  ret ptr %5
}

; Function Attrs: inlinehint nounwind uwtable
define internal i32 @Gia_ObjIsCo(ptr noundef %0) #2 {
  %2 = alloca ptr, align 8
  store ptr %0, ptr %2, align 8, !tbaa !35
  %3 = load ptr, ptr %2, align 8, !tbaa !35
  %4 = load i64, ptr %3, align 4
  %5 = lshr i64 %4, 31
  %6 = and i64 %5, 1
  %7 = trunc i64 %6 to i32
  %8 = icmp ne i32 %7, 0
  br i1 %8, label %9, label %15

9:                                                ; preds = %1
  %10 = load ptr, ptr %2, align 8, !tbaa !35
  %11 = load i64, ptr %10, align 4
  %12 = and i64 %11, 536870911
  %13 = trunc i64 %12 to i32
  %14 = icmp ne i32 %13, 536870911
  br label %15

15:                                               ; preds = %9, %1
  %16 = phi i1 [ false, %1 ], [ %14, %9 ]
  %17 = zext i1 %16 to i32
  ret i32 %17
}

; Function Attrs: inlinehint nounwind uwtable
define internal void @Gia_ManSimPatSimAnd(ptr noundef %0, i32 noundef %1, ptr noundef %2, i32 noundef %3, ptr noundef %4) #2 {
  %6 = alloca ptr, align 8
  %7 = alloca i32, align 4
  %8 = alloca ptr, align 8
  %9 = alloca i32, align 4
  %10 = alloca ptr, align 8
  %11 = alloca [2 x i64], align 16
  %12 = alloca i64, align 8
  %13 = alloca i64, align 8
  %14 = alloca ptr, align 8
  %15 = alloca ptr, align 8
  %16 = alloca ptr, align 8
  %17 = alloca ptr, align 8
  %18 = alloca i32, align 4
  store ptr %0, ptr %6, align 8, !tbaa !3
  store i32 %1, ptr %7, align 4, !tbaa !8
  store ptr %2, ptr %8, align 8, !tbaa !35
  store i32 %3, ptr %9, align 4, !tbaa !8
  store ptr %4, ptr %10, align 8, !tbaa !10
  call void @llvm.lifetime.start.p0(i64 16, ptr %11) #13
  call void @llvm.memcpy.p0.p0.i64(ptr align 16 %11, ptr align 16 @__const.Gia_ManSimPatSimAnd.pComps, i64 16, i1 false)
  call void @llvm.lifetime.start.p0(i64 8, ptr %12) #13
  %19 = load ptr, ptr %8, align 8, !tbaa !35
  %20 = call i32 @Gia_ObjFaninC0(ptr noundef %19)
  %21 = sext i32 %20 to i64
  %22 = getelementptr inbounds [2 x i64], ptr %11, i64 0, i64 %21
  %23 = load i64, ptr %22, align 8, !tbaa !46
  store i64 %23, ptr %12, align 8, !tbaa !46
  call void @llvm.lifetime.start.p0(i64 8, ptr %13) #13
  %24 = load ptr, ptr %8, align 8, !tbaa !35
  %25 = call i32 @Gia_ObjFaninC1(ptr noundef %24)
  %26 = sext i32 %25 to i64
  %27 = getelementptr inbounds [2 x i64], ptr %11, i64 0, i64 %26
  %28 = load i64, ptr %27, align 8, !tbaa !46
  store i64 %28, ptr %13, align 8, !tbaa !46
  call void @llvm.lifetime.start.p0(i64 8, ptr %14) #13
  %29 = load ptr, ptr %10, align 8, !tbaa !10
  %30 = call ptr @Vec_WrdArray(ptr noundef %29)
  store ptr %30, ptr %14, align 8, !tbaa !47
  call void @llvm.lifetime.start.p0(i64 8, ptr %15) #13
  %31 = load ptr, ptr %14, align 8, !tbaa !47
  %32 = load i32, ptr %9, align 4, !tbaa !8
  %33 = load ptr, ptr %8, align 8, !tbaa !35
  %34 = load i32, ptr %7, align 4, !tbaa !8
  %35 = call i32 @Gia_ObjFaninId0(ptr noundef %33, i32 noundef %34)
  %36 = mul nsw i32 %32, %35
  %37 = sext i32 %36 to i64
  %38 = getelementptr inbounds i64, ptr %31, i64 %37
  store ptr %38, ptr %15, align 8, !tbaa !47
  call void @llvm.lifetime.start.p0(i64 8, ptr %16) #13
  %39 = load ptr, ptr %14, align 8, !tbaa !47
  %40 = load i32, ptr %9, align 4, !tbaa !8
  %41 = load ptr, ptr %8, align 8, !tbaa !35
  %42 = load i32, ptr %7, align 4, !tbaa !8
  %43 = call i32 @Gia_ObjFaninId1(ptr noundef %41, i32 noundef %42)
  %44 = mul nsw i32 %40, %43
  %45 = sext i32 %44 to i64
  %46 = getelementptr inbounds i64, ptr %39, i64 %45
  store ptr %46, ptr %16, align 8, !tbaa !47
  call void @llvm.lifetime.start.p0(i64 8, ptr %17) #13
  %47 = load ptr, ptr %14, align 8, !tbaa !47
  %48 = load i32, ptr %9, align 4, !tbaa !8
  %49 = load i32, ptr %7, align 4, !tbaa !8
  %50 = mul nsw i32 %48, %49
  %51 = sext i32 %50 to i64
  %52 = getelementptr inbounds i64, ptr %47, i64 %51
  store ptr %52, ptr %17, align 8, !tbaa !47
  call void @llvm.lifetime.start.p0(i64 4, ptr %18) #13
  %53 = load ptr, ptr %8, align 8, !tbaa !35
  %54 = call i32 @Gia_ObjIsXor(ptr noundef %53)
  %55 = icmp ne i32 %54, 0
  br i1 %55, label %56, label %85

56:                                               ; preds = %5
  store i32 0, ptr %18, align 4, !tbaa !8
  br label %57

57:                                               ; preds = %81, %56
  %58 = load i32, ptr %18, align 4, !tbaa !8
  %59 = load i32, ptr %9, align 4, !tbaa !8
  %60 = icmp slt i32 %58, %59
  br i1 %60, label %61, label %84

61:                                               ; preds = %57
  %62 = load ptr, ptr %15, align 8, !tbaa !47
  %63 = load i32, ptr %18, align 4, !tbaa !8
  %64 = sext i32 %63 to i64
  %65 = getelementptr inbounds i64, ptr %62, i64 %64
  %66 = load i64, ptr %65, align 8, !tbaa !46
  %67 = load i64, ptr %12, align 8, !tbaa !46
  %68 = xor i64 %66, %67
  %69 = load ptr, ptr %16, align 8, !tbaa !47
  %70 = load i32, ptr %18, align 4, !tbaa !8
  %71 = sext i32 %70 to i64
  %72 = getelementptr inbounds i64, ptr %69, i64 %71
  %73 = load i64, ptr %72, align 8, !tbaa !46
  %74 = load i64, ptr %13, align 8, !tbaa !46
  %75 = xor i64 %73, %74
  %76 = xor i64 %68, %75
  %77 = load ptr, ptr %17, align 8, !tbaa !47
  %78 = load i32, ptr %18, align 4, !tbaa !8
  %79 = sext i32 %78 to i64
  %80 = getelementptr inbounds i64, ptr %77, i64 %79
  store i64 %76, ptr %80, align 8, !tbaa !46
  br label %81

81:                                               ; preds = %61
  %82 = load i32, ptr %18, align 4, !tbaa !8
  %83 = add nsw i32 %82, 1
  store i32 %83, ptr %18, align 4, !tbaa !8
  br label %57, !llvm.loop !48

84:                                               ; preds = %57
  br label %114

85:                                               ; preds = %5
  store i32 0, ptr %18, align 4, !tbaa !8
  br label %86

86:                                               ; preds = %110, %85
  %87 = load i32, ptr %18, align 4, !tbaa !8
  %88 = load i32, ptr %9, align 4, !tbaa !8
  %89 = icmp slt i32 %87, %88
  br i1 %89, label %90, label %113

90:                                               ; preds = %86
  %91 = load ptr, ptr %15, align 8, !tbaa !47
  %92 = load i32, ptr %18, align 4, !tbaa !8
  %93 = sext i32 %92 to i64
  %94 = getelementptr inbounds i64, ptr %91, i64 %93
  %95 = load i64, ptr %94, align 8, !tbaa !46
  %96 = load i64, ptr %12, align 8, !tbaa !46
  %97 = xor i64 %95, %96
  %98 = load ptr, ptr %16, align 8, !tbaa !47
  %99 = load i32, ptr %18, align 4, !tbaa !8
  %100 = sext i32 %99 to i64
  %101 = getelementptr inbounds i64, ptr %98, i64 %100
  %102 = load i64, ptr %101, align 8, !tbaa !46
  %103 = load i64, ptr %13, align 8, !tbaa !46
  %104 = xor i64 %102, %103
  %105 = and i64 %97, %104
  %106 = load ptr, ptr %17, align 8, !tbaa !47
  %107 = load i32, ptr %18, align 4, !tbaa !8
  %108 = sext i32 %107 to i64
  %109 = getelementptr inbounds i64, ptr %106, i64 %108
  store i64 %105, ptr %109, align 8, !tbaa !46
  br label %110

110:                                              ; preds = %90
  %111 = load i32, ptr %18, align 4, !tbaa !8
  %112 = add nsw i32 %111, 1
  store i32 %112, ptr %18, align 4, !tbaa !8
  br label %86, !llvm.loop !49

113:                                              ; preds = %86
  br label %114

114:                                              ; preds = %113, %84
  call void @llvm.lifetime.end.p0(i64 4, ptr %18) #13
  call void @llvm.lifetime.end.p0(i64 8, ptr %17) #13
  call void @llvm.lifetime.end.p0(i64 8, ptr %16) #13
  call void @llvm.lifetime.end.p0(i64 8, ptr %15) #13
  call void @llvm.lifetime.end.p0(i64 8, ptr %14) #13
  call void @llvm.lifetime.end.p0(i64 8, ptr %13) #13
  call void @llvm.lifetime.end.p0(i64 8, ptr %12) #13
  call void @llvm.lifetime.end.p0(i64 16, ptr %11) #13
  ret void
}

; Function Attrs: inlinehint nounwind uwtable
define internal i32 @Gia_ObjIsAnd(ptr noundef %0) #2 {
  %2 = alloca ptr, align 8
  store ptr %0, ptr %2, align 8, !tbaa !35
  %3 = load ptr, ptr %2, align 8, !tbaa !35
  %4 = load i64, ptr %3, align 4
  %5 = lshr i64 %4, 31
  %6 = and i64 %5, 1
  %7 = trunc i64 %6 to i32
  %8 = icmp ne i32 %7, 0
  br i1 %8, label %15, label %9

9:                                                ; preds = %1
  %10 = load ptr, ptr %2, align 8, !tbaa !35
  %11 = load i64, ptr %10, align 4
  %12 = and i64 %11, 536870911
  %13 = trunc i64 %12 to i32
  %14 = icmp ne i32 %13, 536870911
  br label %15

15:                                               ; preds = %9, %1
  %16 = phi i1 [ false, %1 ], [ %14, %9 ]
  %17 = zext i1 %16 to i32
  ret i32 %17
}

; Function Attrs: inlinehint nounwind uwtable
define internal void @Gia_ManSimPatSimNot(ptr noundef %0, i32 noundef %1, ptr noundef %2, i32 noundef %3, ptr noundef %4) #2 {
  %6 = alloca ptr, align 8
  %7 = alloca i32, align 4
  %8 = alloca ptr, align 8
  %9 = alloca i32, align 4
  %10 = alloca ptr, align 8
  %11 = alloca ptr, align 8
  %12 = alloca i32, align 4
  store ptr %0, ptr %6, align 8, !tbaa !3
  store i32 %1, ptr %7, align 4, !tbaa !8
  store ptr %2, ptr %8, align 8, !tbaa !35
  store i32 %3, ptr %9, align 4, !tbaa !8
  store ptr %4, ptr %10, align 8, !tbaa !10
  call void @llvm.lifetime.start.p0(i64 8, ptr %11) #13
  %13 = load ptr, ptr %10, align 8, !tbaa !10
  %14 = call ptr @Vec_WrdArray(ptr noundef %13)
  %15 = load i32, ptr %9, align 4, !tbaa !8
  %16 = load i32, ptr %7, align 4, !tbaa !8
  %17 = mul nsw i32 %15, %16
  %18 = sext i32 %17 to i64
  %19 = getelementptr inbounds i64, ptr %14, i64 %18
  store ptr %19, ptr %11, align 8, !tbaa !47
  call void @llvm.lifetime.start.p0(i64 4, ptr %12) #13
  store i32 0, ptr %12, align 4, !tbaa !8
  br label %20

20:                                               ; preds = %35, %5
  %21 = load i32, ptr %12, align 4, !tbaa !8
  %22 = load i32, ptr %9, align 4, !tbaa !8
  %23 = icmp slt i32 %21, %22
  br i1 %23, label %24, label %38

24:                                               ; preds = %20
  %25 = load ptr, ptr %11, align 8, !tbaa !47
  %26 = load i32, ptr %12, align 4, !tbaa !8
  %27 = sext i32 %26 to i64
  %28 = getelementptr inbounds i64, ptr %25, i64 %27
  %29 = load i64, ptr %28, align 8, !tbaa !46
  %30 = xor i64 %29, -1
  %31 = load ptr, ptr %11, align 8, !tbaa !47
  %32 = load i32, ptr %12, align 4, !tbaa !8
  %33 = sext i32 %32 to i64
  %34 = getelementptr inbounds i64, ptr %31, i64 %33
  store i64 %30, ptr %34, align 8, !tbaa !46
  br label %35

35:                                               ; preds = %24
  %36 = load i32, ptr %12, align 4, !tbaa !8
  %37 = add nsw i32 %36, 1
  store i32 %37, ptr %12, align 4, !tbaa !8
  br label %20, !llvm.loop !68

38:                                               ; preds = %20
  call void @llvm.lifetime.end.p0(i64 4, ptr %12) #13
  call void @llvm.lifetime.end.p0(i64 8, ptr %11) #13
  ret void
}

; Function Attrs: inlinehint nounwind uwtable
define internal i32 @Gia_ObjId(ptr noundef %0, ptr noundef %1) #2 {
  %3 = alloca ptr, align 8
  %4 = alloca ptr, align 8
  store ptr %0, ptr %3, align 8, !tbaa !3
  store ptr %1, ptr %4, align 8, !tbaa !35
  %5 = load ptr, ptr %4, align 8, !tbaa !35
  %6 = load ptr, ptr %3, align 8, !tbaa !3
  %7 = getelementptr inbounds nuw %struct.Gia_Man_t_, ptr %6, i32 0, i32 6
  %8 = load ptr, ptr %7, align 8, !tbaa !36
  %9 = ptrtoint ptr %5 to i64
  %10 = ptrtoint ptr %8 to i64
  %11 = sub i64 %9, %10
  %12 = sdiv exact i64 %11, 12
  %13 = trunc i64 %12 to i32
  ret i32 %13
}

; Function Attrs: inlinehint nounwind uwtable
define internal ptr @Gia_ManObj(ptr noundef %0, i32 noundef %1) #2 {
  %3 = alloca ptr, align 8
  %4 = alloca i32, align 4
  store ptr %0, ptr %3, align 8, !tbaa !3
  store i32 %1, ptr %4, align 4, !tbaa !8
  %5 = load ptr, ptr %3, align 8, !tbaa !3
  %6 = getelementptr inbounds nuw %struct.Gia_Man_t_, ptr %5, i32 0, i32 6
  %7 = load ptr, ptr %6, align 8, !tbaa !36
  %8 = load i32, ptr %4, align 4, !tbaa !8
  %9 = sext i32 %8 to i64
  %10 = getelementptr inbounds %struct.Gia_Obj_t_, ptr %7, i64 %9
  ret ptr %10
}

; Function Attrs: inlinehint nounwind uwtable
define internal i32 @Vec_IntEntry(ptr noundef %0, i32 noundef %1) #2 {
  %3 = alloca ptr, align 8
  %4 = alloca i32, align 4
  store ptr %0, ptr %3, align 8, !tbaa !33
  store i32 %1, ptr %4, align 4, !tbaa !8
  %5 = load ptr, ptr %3, align 8, !tbaa !33
  %6 = getelementptr inbounds nuw %struct.Vec_Int_t_, ptr %5, i32 0, i32 2
  %7 = load ptr, ptr %6, align 8, !tbaa !58
  %8 = load i32, ptr %4, align 4, !tbaa !8
  %9 = sext i32 %8 to i64
  %10 = getelementptr inbounds i32, ptr %7, i64 %9
  %11 = load i32, ptr %10, align 4, !tbaa !8
  ret i32 %11
}

; Function Attrs: inlinehint nounwind uwtable
define internal i32 @Vec_IntSize(ptr noundef %0) #2 {
  %2 = alloca ptr, align 8
  store ptr %0, ptr %2, align 8, !tbaa !33
  %3 = load ptr, ptr %2, align 8, !tbaa !33
  %4 = getelementptr inbounds nuw %struct.Vec_Int_t_, ptr %3, i32 0, i32 1
  %5 = load i32, ptr %4, align 4, !tbaa !34
  ret i32 %5
}

; Function Attrs: nounwind uwtable
define void @Gia_ManSimPatResim(ptr noundef %0, ptr noundef %1, i32 noundef %2, ptr noundef %3) #0 {
  %5 = alloca ptr, align 8
  %6 = alloca ptr, align 8
  %7 = alloca i32, align 4
  %8 = alloca ptr, align 8
  %9 = alloca ptr, align 8
  %10 = alloca i32, align 4
  store ptr %0, ptr %5, align 8, !tbaa !3
  store ptr %1, ptr %6, align 8, !tbaa !33
  store i32 %2, ptr %7, align 4, !tbaa !8
  store ptr %3, ptr %8, align 8, !tbaa !10
  call void @llvm.lifetime.start.p0(i64 8, ptr %9) #13
  call void @llvm.lifetime.start.p0(i64 4, ptr %10) #13
  store i32 0, ptr %10, align 4, !tbaa !8
  br label %11

11:                                               ; preds = %56, %4
  %12 = load i32, ptr %10, align 4, !tbaa !8
  %13 = load ptr, ptr %6, align 8, !tbaa !33
  %14 = call i32 @Vec_IntSize(ptr noundef %13)
  %15 = icmp slt i32 %12, %14
  br i1 %15, label %16, label %23

16:                                               ; preds = %11
  %17 = load ptr, ptr %5, align 8, !tbaa !3
  %18 = load ptr, ptr %6, align 8, !tbaa !33
  %19 = load i32, ptr %10, align 4, !tbaa !8
  %20 = call i32 @Vec_IntEntry(ptr noundef %18, i32 noundef %19)
  %21 = call ptr @Gia_ManObj(ptr noundef %17, i32 noundef %20)
  store ptr %21, ptr %9, align 8, !tbaa !35
  %22 = icmp ne ptr %21, null
  br label %23

23:                                               ; preds = %16, %11
  %24 = phi i1 [ false, %11 ], [ %22, %16 ]
  br i1 %24, label %25, label %59

25:                                               ; preds = %23
  %26 = load i32, ptr %10, align 4, !tbaa !8
  %27 = icmp eq i32 %26, 0
  br i1 %27, label %28, label %36

28:                                               ; preds = %25
  %29 = load ptr, ptr %5, align 8, !tbaa !3
  %30 = load ptr, ptr %5, align 8, !tbaa !3
  %31 = load ptr, ptr %9, align 8, !tbaa !35
  %32 = call i32 @Gia_ObjId(ptr noundef %30, ptr noundef %31)
  %33 = load ptr, ptr %9, align 8, !tbaa !35
  %34 = load i32, ptr %7, align 4, !tbaa !8
  %35 = load ptr, ptr %8, align 8, !tbaa !10
  call void @Gia_ManSimPatSimNot(ptr noundef %29, i32 noundef %32, ptr noundef %33, i32 noundef %34, ptr noundef %35)
  br label %55

36:                                               ; preds = %25
  %37 = load ptr, ptr %9, align 8, !tbaa !35
  %38 = call i32 @Gia_ObjIsAnd(ptr noundef %37)
  %39 = icmp ne i32 %38, 0
  br i1 %39, label %40, label %48

40:                                               ; preds = %36
  %41 = load ptr, ptr %5, align 8, !tbaa !3
  %42 = load ptr, ptr %5, align 8, !tbaa !3
  %43 = load ptr, ptr %9, align 8, !tbaa !35
  %44 = call i32 @Gia_ObjId(ptr noundef %42, ptr noundef %43)
  %45 = load ptr, ptr %9, align 8, !tbaa !35
  %46 = load i32, ptr %7, align 4, !tbaa !8
  %47 = load ptr, ptr %8, align 8, !tbaa !10
  call void @Gia_ManSimPatSimAnd(ptr noundef %41, i32 noundef %44, ptr noundef %45, i32 noundef %46, ptr noundef %47)
  br label %54

48:                                               ; preds = %36
  %49 = load ptr, ptr %9, align 8, !tbaa !35
  %50 = call i32 @Gia_ObjIsCo(ptr noundef %49)
  %51 = icmp ne i32 %50, 0
  br i1 %51, label %53, label %52

52:                                               ; preds = %48
  br label %53

53:                                               ; preds = %52, %48
  br label %54

54:                                               ; preds = %53, %40
  br label %55

55:                                               ; preds = %54, %28
  br label %56

56:                                               ; preds = %55
  %57 = load i32, ptr %10, align 4, !tbaa !8
  %58 = add nsw i32 %57, 1
  store i32 %58, ptr %10, align 4, !tbaa !8
  br label %11, !llvm.loop !67

59:                                               ; preds = %23
  call void @llvm.lifetime.end.p0(i64 4, ptr %10) #13
  call void @llvm.lifetime.end.p0(i64 8, ptr %9) #13
  ret void
}