; Function Attrs: nofree norecurse nosync nounwind memory(readwrite, inaccessiblemem: none) uwtable
define void @Gia_ManSimPatResim(ptr noundef readonly captures(none) %0, ptr noundef readonly captures(none) %1, i32 noundef %2, ptr noundef readonly captures(none) %3) local_unnamed_addr #0 {
  %5 = getelementptr i8, ptr %1, i64 4
  %.val = load i32, ptr %5, align 4, !tbaa !28
  %6 = icmp sgt i32 %.val, 0
  br i1 %6, label %.lr.ph, label %.critedge

.lr.ph:                                           ; preds = %4
  %7 = getelementptr i8, ptr %1, i64 8
  %.val22 = load ptr, ptr %7, align 8, !tbaa !29
  %8 = getelementptr i8, ptr %0, i64 32
  %.val23 = load ptr, ptr %8, align 8, !tbaa !40
  %.not = icmp eq ptr %.val23, null
  %9 = getelementptr i8, ptr %3, i64 8
  %10 = icmp sgt i32 %2, 0
  %wide.trip.count14.i = zext nneg i32 %2 to i64
  br i1 %.not, label %.critedge, label %.lr.ph.split.preheader

.lr.ph.split.preheader:                           ; preds = %.lr.ph
  %wide.trip.count = zext nneg i32 %.val to i64
  br label %.lr.ph.split

.lr.ph.split:                                     ; preds = %.lr.ph.split.preheader, %Gia_ManSimPatSimNot.exit
  %indvars.iv = phi i64 [ 0, %.lr.ph.split.preheader ], [ %indvars.iv.next, %Gia_ManSimPatSimNot.exit ]
  %11 = getelementptr inbounds nuw i32, ptr %.val22, i64 %indvars.iv
  %12 = load i32, ptr %11, align 4, !tbaa !30
  %13 = icmp eq i64 %indvars.iv, 0
  br i1 %13, label %14, label %21

14:                                               ; preds = %.lr.ph.split
  %.val29 = load ptr, ptr %9, align 8, !tbaa !31
  %15 = mul nsw i32 %12, %2
  %16 = sext i32 %15 to i64
  %17 = getelementptr inbounds i64, ptr %.val29, i64 %16
  br i1 %10, label %.lr.ph.i, label %Gia_ManSimPatSimNot.exit

.lr.ph.i:                                         ; preds = %14, %.lr.ph.i
  %indvars.iv.i = phi i64 [ %indvars.iv.next.i, %.lr.ph.i ], [ 0, %14 ]
  %18 = getelementptr inbounds nuw i64, ptr %17, i64 %indvars.iv.i
  %19 = load i64, ptr %18, align 8, !tbaa !41
  %20 = xor i64 %19, -1
  store i64 %20, ptr %18, align 8, !tbaa !41
  %indvars.iv.next.i = add nuw nsw i64 %indvars.iv.i, 1
  %exitcond.not.i = icmp eq i64 %indvars.iv.next.i, %wide.trip.count14.i
  br i1 %exitcond.not.i, label %Gia_ManSimPatSimNot.exit, label %.lr.ph.i, !llvm.loop !63

21:                                               ; preds = %.lr.ph.split
  %22 = sext i32 %12 to i64
  %23 = getelementptr inbounds %struct.Gia_Obj_t_, ptr %.val23, i64 %22
  %.val26 = load i64, ptr %23, align 4
  %24 = and i64 %.val26, 2147483648
  %.not.i = icmp ne i64 %24, 0
  %25 = and i64 %.val26, 536870911
  %26 = icmp eq i64 %25, 536870911
  %narrow.i.not = or i1 %.not.i, %26
  br i1 %narrow.i.not, label %Gia_ManSimPatSimNot.exit, label %27

27:                                               ; preds = %21
  %.val28 = load ptr, ptr %9, align 8, !tbaa !31
  %28 = trunc i64 %.val26 to i32
  %29 = lshr i64 %.val26, 29
  %30 = and i64 %29, 1
  %31 = getelementptr inbounds nuw [2 x i64], ptr @__const.Gia_SimRsbSimAndCareSet.pComps, i64 0, i64 %30
  %32 = load i64, ptr %31, align 8, !tbaa !41
  %33 = lshr i64 %.val26, 61
  %34 = and i64 %33, 1
  %35 = getelementptr inbounds nuw [2 x i64], ptr @__const.Gia_SimRsbSimAndCareSet.pComps, i64 0, i64 %34
  %36 = load i64, ptr %35, align 8, !tbaa !41
  %37 = and i32 %28, 536870911
  %38 = sub nsw i32 %12, %37
  %39 = mul nsw i32 %38, %2
  %40 = sext i32 %39 to i64
  %41 = getelementptr inbounds i64, ptr %.val28, i64 %40
  %42 = lshr i64 %.val26, 32
  %43 = trunc nuw i64 %42 to i32
  %44 = and i32 %43, 536870911
  %45 = sub nsw i32 %12, %44
  %46 = mul nsw i32 %45, %2
  %47 = sext i32 %46 to i64
  %48 = getelementptr inbounds i64, ptr %.val28, i64 %47
  %49 = mul nsw i32 %12, %2
  %50 = sext i32 %49 to i64
  %51 = getelementptr inbounds i64, ptr %.val28, i64 %50
  %.not39 = icmp samesign ult i32 %37, %44
  br i1 %.not39, label %.preheader4.i, label %.preheader.i

.preheader4.i:                                    ; preds = %27
  br i1 %10, label %.lr.ph.i31, label %Gia_ManSimPatSimNot.exit

.lr.ph.i31:                                       ; preds = %.preheader4.i
  %invariant.op = xor i64 %32, %36
  br label %52

.preheader.i:                                     ; preds = %27
  br i1 %10, label %.lr.ph8.i, label %Gia_ManSimPatSimNot.exit

52:                                               ; preds = %52, %.lr.ph.i31
  %indvars.iv.i33 = phi i64 [ 0, %.lr.ph.i31 ], [ %indvars.iv.next.i34, %52 ]
  %53 = getelementptr inbounds nuw i64, ptr %41, i64 %indvars.iv.i33
  %54 = load i64, ptr %53, align 8, !tbaa !41
  %55 = getelementptr inbounds nuw i64, ptr %48, i64 %indvars.iv.i33
  %56 = load i64, ptr %55, align 8, !tbaa !41
  %57 = xor i64 %54, %56
  %.reass.i.reass = xor i64 %57, %invariant.op
  %58 = getelementptr inbounds nuw i64, ptr %51, i64 %indvars.iv.i33
  store i64 %.reass.i.reass, ptr %58, align 8, !tbaa !41
  %indvars.iv.next.i34 = add nuw nsw i64 %indvars.iv.i33, 1
  %exitcond.not.i35 = icmp eq i64 %indvars.iv.next.i34, %wide.trip.count14.i
  br i1 %exitcond.not.i35, label %Gia_ManSimPatSimNot.exit, label %52, !llvm.loop !43

.lr.ph8.i:                                        ; preds = %.preheader.i, %.lr.ph8.i
  %indvars.iv11.i = phi i64 [ %indvars.iv.next12.i, %.lr.ph8.i ], [ 0, %.preheader.i ]
  %59 = getelementptr inbounds nuw i64, ptr %41, i64 %indvars.iv11.i
  %60 = load i64, ptr %59, align 8, !tbaa !41
  %61 = xor i64 %60, %32
  %62 = getelementptr inbounds nuw i64, ptr %48, i64 %indvars.iv11.i
  %63 = load i64, ptr %62, align 8, !tbaa !41
  %64 = xor i64 %63, %36
  %65 = and i64 %64, %61
  %66 = getelementptr inbounds nuw i64, ptr %51, i64 %indvars.iv11.i
  store i64 %65, ptr %66, align 8, !tbaa !41
  %indvars.iv.next12.i = add nuw nsw i64 %indvars.iv11.i, 1
  %exitcond15.not.i = icmp eq i64 %indvars.iv.next12.i, %wide.trip.count14.i
  br i1 %exitcond15.not.i, label %Gia_ManSimPatSimNot.exit, label %.lr.ph8.i, !llvm.loop !42

Gia_ManSimPatSimNot.exit:                         ; preds = %.lr.ph8.i, %52, %.lr.ph.i, %21, %.preheader.i, %.preheader4.i, %14
  %indvars.iv.next = add nuw nsw i64 %indvars.iv, 1
  %exitcond.not = icmp eq i64 %indvars.iv.next, %wide.trip.count
  br i1 %exitcond.not, label %.critedge, label %.lr.ph.split, !llvm.loop !64

.critedge:                                        ; preds = %Gia_ManSimPatSimNot.exit, %.lr.ph, %4
  ret void
}